; ModuleID = 'source-C-CXX/42/222.c'
source_filename = "source-C-CXX/42/222.c"
target datalayout = "e-m:e-p270:32:32-p271:32:32-p272:64:64-i64:64-f80:128-n8:16:32:64-S128"
target triple = "x86_64-pc-linux-gnu"

@.str = private unnamed_addr constant [3 x i8] c"%d\00", align 1
@.str.1 = private unnamed_addr constant [7 x i8] c"%d %d\0A\00", align 1

; Function Attrs: nofree nounwind sspstrong uwtable
define dso_local i32 @main() local_unnamed_addr #0 {
  %1 = alloca i32, align 4
  %2 = bitcast i32* %1 to i8*
  call void @llvm.lifetime.start.p0i8(i64 4, i8* nonnull %2) #3
  %3 = call i32 (i8*, ...) @__isoc99_scanf(i8* getelementptr inbounds ([3 x i8], [3 x i8]* @.str, i64 0, i64 0), i32* nonnull %1)
  %4 = load i32, i32* %1, align 4, !tbaa !5
  %5 = icmp slt i32 %4, 2
  br i1 %5, label %37, label %6

6:                                                ; preds = %0, %32
  %7 = phi i32 [ %33, %32 ], [ %4, %0 ]
  %8 = phi i32 [ %34, %32 ], [ 1, %0 ]
  br label %9

9:                                                ; preds = %9, %6
  %10 = phi i32 [ %15, %9 ], [ 2, %6 ]
  %11 = urem i32 %8, %10
  %12 = icmp ne i32 %11, 0
  %13 = icmp ule i32 %10, %8
  %14 = and i1 %13, %12
  %15 = add nuw nsw i32 %10, 1
  br i1 %14, label %9, label %16, !llvm.loop !9

16:                                               ; preds = %9
  %17 = icmp eq i32 %10, %8
  br i1 %17, label %18, label %32

18:                                               ; preds = %16
  %19 = sub nsw i32 %7, %8
  br label %20

20:                                               ; preds = %20, %18
  %21 = phi i32 [ %26, %20 ], [ 2, %18 ]
  %22 = srem i32 %19, %21
  %23 = icmp eq i32 %22, 0
  %24 = icmp sgt i32 %21, %19
  %25 = or i1 %24, %23
  %26 = add nuw nsw i32 %21, 1
  br i1 %25, label %27, label %20, !llvm.loop !11

27:                                               ; preds = %20
  %28 = icmp eq i32 %21, %19
  br i1 %28, label %29, label %32

29:                                               ; preds = %27
  %30 = call i32 (i8*, ...) @printf(i8* nonnull dereferenceable(1) getelementptr inbounds ([7 x i8], [7 x i8]* @.str.1, i64 0, i64 0), i32 %8, i32 %19)
  %31 = load i32, i32* %1, align 4, !tbaa !5
  br label %32

32:                                               ; preds = %16, %29, %27
  %33 = phi i32 [ %7, %16 ], [ %31, %29 ], [ %7, %27 ]
  %34 = add nuw nsw i32 %8, 1
  %35 = sdiv i32 %33, 2
  %36 = icmp slt i32 %8, %35
  br i1 %36, label %6, label %37, !llvm.loop !12

37:                                               ; preds = %32, %0
  call void @llvm.lifetime.end.p0i8(i64 4, i8* nonnull %2) #3
  ret i32 0
}

; Function Attrs: argmemonly mustprogress nofree nosync nounwind willreturn
declare void @llvm.lifetime.start.p0i8(i64 immarg, i8* nocapture) #1

; Function Attrs: nofree nounwind
declare noundef i32 @__isoc99_scanf(i8* nocapture noundef readonly, ...) local_unnamed_addr #2

; Function Attrs: nofree nounwind
declare noundef i32 @printf(i8* nocapture noundef readonly, ...) local_unnamed_addr #2

; Function Attrs: argmemonly mustprogress nofree nosync nounwind willreturn
declare void @llvm.lifetime.end.p0i8(i64 immarg, i8* nocapture) #1


!llvm.module.flags = !{!0, !1, !2, !3}
!llvm.ident = !{!4}

!0 = !{i32 1, !"wchar_size", i32 4}
!1 = !{i32 7, !"PIC Level", i32 2}
!2 = !{i32 7, !"PIE Level", i32 2}
!3 = !{i32 7, !"uwtable", i32 1}
!4 = !{!"clang version 13.0.0"}
!5 = !{!6, !6, i64 0}
!6 = !{!"int", !7, i64 0}
!7 = !{!"omnipotent char", !8, i64 0}
!8 = !{!"Simple C/C++ TBAA"}
!9 = distinct !{!9, !10}
!10 = !{!"llvm.loop.mustprogress"}
!11 = distinct !{!11, !10}
!12 = distinct !{!12, !10}
